target datalayout = "e-m:e-p270:32:32-p271:32:32-p272:64:64-i64:64-i128:128-f80:128-n8:16:32:64-S128"
target triple = "x86_64-pc-linux-gnu"

@__itt_sync_rename_ptr__3_0 = external global ptr, align 8

; Function Attrs: mustprogress sspstrong uwtable
define void @_ZN3tbb6detail2r117itt_set_sync_nameEPvPKc(ptr noundef %0, ptr noundef %1) #0 {
  %3 = alloca ptr, align 8
  %4 = alloca ptr, align 8
  store ptr %0, ptr %3, align 8, !tbaa !14
  store ptr %1, ptr %4, align 8, !tbaa !15
  %5 = load ptr, ptr @__itt_sync_rename_ptr__3_0, align 8, !tbaa !14
  %6 = icmp ne ptr %5, null
  br i1 %6, label %8, label %7

7:                                                ; preds = %2
  br label %12

8:                                                ; preds = %2
  %9 = load ptr, ptr @__itt_sync_rename_ptr__3_0, align 8, !tbaa !14
  %10 = load ptr, ptr %3, align 8, !tbaa !14
  %11 = load ptr, ptr %4, align 8, !tbaa !15
  call void %9(ptr noundef %10, ptr noundef %11)
  br label %12

12:                                               ; preds = %8, %7
  ret void
}