; Function Attrs: mustprogress sspstrong uwtable
define void @_ZN3tbb6detail2r117itt_set_sync_nameEPvPKc(ptr noundef %0, ptr noundef %1) local_unnamed_addr #0 {
  %3 = load ptr, ptr @__itt_sync_rename_ptr__3_0, align 8, !tbaa !7
  %.not = icmp eq ptr %3, null
  br i1 %.not, label %5, label %4

4:                                                ; preds = %2
  tail call void %3(ptr noundef %0, ptr noundef %1)
  br label %5

5:                                                ; preds = %2, %4
  ret void
}